target datalayout = "e-m:e-p270:32:32-p271:32:32-p272:64:64-i64:64-i128:128-f80:128-n8:16:32:64-S128"
target triple = "x86_64-pc-linux-gnu"

%"struct.llvm::EVT" = type { %"class.llvm::MVT", ptr }
%"class.llvm::MVT" = type { i16 }
%"class.llvm::SDNode" = type { %"class.llvm::FoldingSetBase::Node", %"class.llvm::ilist_node", i32, %"struct.llvm::SDNodeFlags", %union.anon, i16, i32, ptr, ptr, ptr, i16, i16, i32, %"class.llvm::DebugLoc", i32, i32 }
%"class.llvm::FoldingSetBase::Node" = type { ptr }
%"class.llvm::ilist_node" = type { %"class.llvm::ilist_node_impl" }
%"class.llvm::ilist_node_impl" = type { %"class.llvm::ilist_node_base" }
%"class.llvm::ilist_node_base" = type { %"class.llvm::ilist_detail::node_base_prevnext" }
%"class.llvm::ilist_detail::node_base_prevnext" = type { ptr, ptr }
%"struct.llvm::SDNodeFlags" = type { i16 }
%union.anon = type { %"class.llvm::SDNode::LSBaseSDNodeBitfields" }
%"class.llvm::SDNode::LSBaseSDNodeBitfields" = type { i16 }
%"class.llvm::DebugLoc" = type { %"class.llvm::TypedTrackingMDRef" }
%"class.llvm::TypedTrackingMDRef" = type { %"class.llvm::TrackingMDRef" }
%"class.llvm::TrackingMDRef" = type { ptr }
%"class.llvm::SDValue" = type <{ ptr, i32, [4 x i8] }>
%"class.llvm::SDUse" = type { %"class.llvm::SDValue", ptr, ptr, ptr }

; Function Attrs: mustprogress nounwind uwtable
define linkonce_odr hidden { i16, ptr } @_ZNK4llvm6SDNode12getValueTypeEj(ptr noundef nonnull align 8 dereferenceable(88) %0, i32 noundef %1) #0 comdat align 2 {
  %3 = alloca %"struct.llvm::EVT", align 8
  %4 = alloca ptr, align 8
  %5 = alloca i32, align 4
  store ptr %0, ptr %4, align 8
  store i32 %1, ptr %5, align 4
  %6 = load ptr, ptr %4, align 8
  %7 = getelementptr inbounds nuw %"class.llvm::SDNode", ptr %6, i32 0, i32 8
  %8 = load ptr, ptr %7, align 8
  %9 = load i32, ptr %5, align 4
  %10 = zext i32 %9 to i64
  %11 = getelementptr inbounds %"struct.llvm::EVT", ptr %8, i64 %10
  call void @llvm.memcpy.p0.p0.i64(ptr align 8 %3, ptr align 8 %11, i64 16, i1 false)
  %12 = load { i16, ptr }, ptr %3, align 8
  ret { i16, ptr } %12
}

; Function Attrs: mustprogress nounwind uwtable
define linkonce_odr hidden noundef nonnull align 8 dereferenceable(12) ptr @_ZNK4llvm5SDUsecvRKNS_7SDValueEEv(ptr noundef nonnull align 8 dereferenceable(40) %0) #0 comdat align 2 {
  %2 = alloca ptr, align 8
  store ptr %0, ptr %2, align 8
  %3 = load ptr, ptr %2, align 8
  %4 = getelementptr inbounds nuw %"class.llvm::SDUse", ptr %3, i32 0, i32 0
  ret ptr %4
}

; Function Attrs: mustprogress nounwind uwtable
define linkonce_odr hidden void @_ZN4llvm3EVTC2ENS_3MVTE(ptr noundef nonnull align 8 dereferenceable(16) %0, i16 %1) unnamed_addr #0 comdat align 2 {
  %3 = alloca %"class.llvm::MVT", align 2
  %4 = alloca ptr, align 8
  %5 = getelementptr inbounds nuw %"class.llvm::MVT", ptr %3, i32 0, i32 0
  store i16 %1, ptr %5, align 2
  store ptr %0, ptr %4, align 8
  %6 = load ptr, ptr %4, align 8
  %7 = getelementptr inbounds nuw %"struct.llvm::EVT", ptr %6, i32 0, i32 0
  call void @llvm.memcpy.p0.p0.i64(ptr align 8 %7, ptr align 2 %3, i64 2, i1 false)
  %8 = getelementptr inbounds nuw %"struct.llvm::EVT", ptr %6, i32 0, i32 1
  store ptr null, ptr %8, align 8
  ret void
}

; Function Attrs: mustprogress nounwind uwtable
define linkonce_odr hidden i16 @_ZNK4llvm3EVT11getSimpleVTEv(ptr noundef nonnull align 8 dereferenceable(16) %0) #0 comdat align 2 {
  %2 = alloca %"class.llvm::MVT", align 2
  %3 = alloca ptr, align 8
  store ptr %0, ptr %3, align 8
  %4 = load ptr, ptr %3, align 8
  %5 = getelementptr inbounds nuw %"struct.llvm::EVT", ptr %4, i32 0, i32 0
  call void @llvm.memcpy.p0.p0.i64(ptr align 2 %2, ptr align 8 %5, i64 2, i1 false)
  %6 = getelementptr inbounds nuw %"class.llvm::MVT", ptr %2, i32 0, i32 0
  %7 = load i16, ptr %6, align 2
  ret i16 %7
}

; Function Attrs: mustprogress nounwind uwtable
define linkonce_odr hidden { i16, ptr } @_ZNK4llvm7SDValue12getValueTypeEv(ptr noundef nonnull align 8 dereferenceable(12) %0) #0 comdat align 2 {
  %2 = alloca %"struct.llvm::EVT", align 8
  %3 = alloca ptr, align 8
  store ptr %0, ptr %3, align 8
  %4 = load ptr, ptr %3, align 8
  %5 = getelementptr inbounds nuw %"class.llvm::SDValue", ptr %4, i32 0, i32 0
  %6 = load ptr, ptr %5, align 8
  %7 = getelementptr inbounds nuw %"class.llvm::SDValue", ptr %4, i32 0, i32 1
  %8 = load i32, ptr %7, align 8
  %9 = call { i16, ptr } @_ZNK4llvm6SDNode12getValueTypeEj(ptr noundef nonnull align 8 dereferenceable(88) %6, i32 noundef %8)
  %10 = getelementptr inbounds nuw { i16, ptr }, ptr %2, i32 0, i32 0
  %11 = extractvalue { i16, ptr } %9, 0
  store i16 %11, ptr %10, align 8
  %12 = getelementptr inbounds nuw { i16, ptr }, ptr %2, i32 0, i32 1
  %13 = extractvalue { i16, ptr } %9, 1
  store ptr %13, ptr %12, align 8
  %14 = load { i16, ptr }, ptr %2, align 8
  ret { i16, ptr } %14
}

; Function Attrs: mustprogress nounwind uwtable
define linkonce_odr hidden noundef nonnull align 8 dereferenceable(12) ptr @_ZNK4llvm6SDNode10getOperandEj(ptr noundef nonnull align 8 dereferenceable(88) %0, i32 noundef %1) #0 comdat align 2 {
  %3 = alloca ptr, align 8
  %4 = alloca i32, align 4
  store ptr %0, ptr %3, align 8
  store i32 %1, ptr %4, align 4
  %5 = load ptr, ptr %3, align 8
  %6 = getelementptr inbounds nuw %"class.llvm::SDNode", ptr %5, i32 0, i32 7
  %7 = load ptr, ptr %6, align 8
  %8 = load i32, ptr %4, align 4
  %9 = zext i32 %8 to i64
  %10 = getelementptr inbounds %"class.llvm::SDUse", ptr %7, i64 %9
  %11 = call noundef nonnull align 8 dereferenceable(12) ptr @_ZNK4llvm5SDUsecvRKNS_7SDValueEEv(ptr noundef nonnull align 8 dereferenceable(40) %10)
  ret ptr %11
}

; Function Attrs: mustprogress nounwind uwtable
define internal void @_ZN12_GLOBAL__N_120SelectionDAGLegalize18ExpandArgFPLibCallEPN4llvm6SDNodeENS1_5RTLIB7LibcallES5_S5_S5_S5_RNS1_15SmallVectorImplINS1_7SDValueEEE(ptr noundef nonnull align 8 dereferenceable(40) %0, ptr noundef %1, i32 noundef %2, i32 noundef %3, i32 noundef %4, i32 noundef %5, i32 noundef %6, ptr noundef nonnull align 8 dereferenceable(16) %7) #0 align 2 {
  %9 = alloca ptr, align 8
  %10 = alloca ptr, align 8
  %11 = alloca i32, align 4
  %12 = alloca i32, align 4
  %13 = alloca i32, align 4
  %14 = alloca i32, align 4
  %15 = alloca i32, align 4
  %16 = alloca ptr, align 8
  %17 = alloca %"struct.llvm::EVT", align 8
  %18 = alloca i32, align 4
  %19 = alloca %"struct.llvm::EVT", align 8
  %20 = alloca %"class.llvm::MVT", align 2
  store ptr %0, ptr %9, align 8
  store ptr %1, ptr %10, align 8
  store i32 %2, ptr %11, align 4
  store i32 %3, ptr %12, align 4
  store i32 %4, ptr %13, align 4
  store i32 %5, ptr %14, align 4
  store i32 %6, ptr %15, align 4
  store ptr %7, ptr %16, align 8
  %21 = load ptr, ptr %9, align 8
  %22 = load ptr, ptr %10, align 8
  %23 = load ptr, ptr %10, align 8
  %24 = call noundef zeroext i1 @_ZN4llvm6SDNode16isStrictFPOpcodeEv(ptr noundef nonnull align 8 dereferenceable(88) %23)
  %25 = select i1 %24, i32 1, i32 0
  %26 = call noundef nonnull align 8 dereferenceable(12) ptr @_ZNK4llvm6SDNode10getOperandEj(ptr noundef nonnull align 8 dereferenceable(88) %22, i32 noundef %25)
  %27 = call { i16, ptr } @_ZNK4llvm7SDValue12getValueTypeEv(ptr noundef nonnull align 8 dereferenceable(12) %26)
  %28 = getelementptr inbounds nuw { i16, ptr }, ptr %17, i32 0, i32 0
  %29 = extractvalue { i16, ptr } %27, 0
  store i16 %29, ptr %28, align 8
  %30 = getelementptr inbounds nuw { i16, ptr }, ptr %17, i32 0, i32 1
  %31 = extractvalue { i16, ptr } %27, 1
  store ptr %31, ptr %30, align 8
  %32 = call i16 @_ZNK4llvm3EVT11getSimpleVTEv(ptr noundef nonnull align 8 dereferenceable(16) %17)
  %33 = getelementptr inbounds nuw %"class.llvm::MVT", ptr %20, i32 0, i32 0
  store i16 %32, ptr %33, align 2
  %34 = getelementptr inbounds nuw %"class.llvm::MVT", ptr %20, i32 0, i32 0
  %35 = load i16, ptr %34, align 2
  call void @_ZN4llvm3EVTC2ENS_3MVTE(ptr noundef nonnull align 8 dereferenceable(16) %19, i16 %35)
  %36 = load i32, ptr %11, align 4
  %37 = load i32, ptr %12, align 4
  %38 = load i32, ptr %13, align 4
  %39 = load i32, ptr %14, align 4
  %40 = load i32, ptr %15, align 4
  %41 = getelementptr inbounds nuw { i16, ptr }, ptr %19, i32 0, i32 0
  %42 = load i16, ptr %41, align 8
  %43 = getelementptr inbounds nuw { i16, ptr }, ptr %19, i32 0, i32 1
  %44 = load ptr, ptr %43, align 8
  %45 = call noundef i32 @_ZN4llvm5RTLIB12getFPLibCallENS_3EVTENS0_7LibcallES2_S2_S2_S2_(i16 %42, ptr %44, i32 noundef %36, i32 noundef %37, i32 noundef %38, i32 noundef %39, i32 noundef %40)
  store i32 %45, ptr %18, align 4
  %46 = load ptr, ptr %10, align 8
  %47 = load i32, ptr %18, align 4
  %48 = load ptr, ptr %16, align 8
  call void @_ZN12_GLOBAL__N_120SelectionDAGLegalize15ExpandFPLibCallEPN4llvm6SDNodeENS1_5RTLIB7LibcallERNS1_15SmallVectorImplINS1_7SDValueEEE(ptr noundef nonnull align 8 dereferenceable(40) %21, ptr noundef %46, i32 noundef %47, ptr noundef nonnull align 8 dereferenceable(16) %48)
  ret void
}