; Function Attrs: mustprogress nounwind uwtable
define internal fastcc void @_ZN12_GLOBAL__N_120SelectionDAGLegalize18ExpandArgFPLibCallEPN4llvm6SDNodeENS1_5RTLIB7LibcallES5_S5_S5_S5_RNS1_15SmallVectorImplINS1_7SDValueEEE(ptr noundef nonnull readonly align 8 captures(none) dereferenceable(40) %0, ptr noundef nonnull %1, i32 noundef range(i32 277, 293) %2, i32 noundef range(i32 278, 294) %3, i32 noundef range(i32 279, 295) %4, i32 noundef range(i32 280, 296) %5, i32 noundef range(i32 281, 297) %6, ptr noundef nonnull align 8 dereferenceable(16) %7) unnamed_addr #0 align 2 {
  %9 = tail call noundef zeroext i1 @_ZN4llvm6SDNode16isStrictFPOpcodeEv(ptr noundef nonnull align 8 dereferenceable(88) %1)
  %10 = getelementptr inbounds nuw i8, ptr %1, i64 40
  %11 = load ptr, ptr %10, align 8
  %12 = zext i1 %9 to i64
  %13 = getelementptr inbounds nuw %"class.llvm::SDUse", ptr %11, i64 %12
  %14 = load ptr, ptr %13, align 8
  %15 = getelementptr inbounds nuw i8, ptr %13, i64 8
  %16 = load i32, ptr %15, align 8
  %17 = getelementptr inbounds nuw i8, ptr %14, i64 48
  %18 = load ptr, ptr %17, align 8
  %19 = zext i32 %16 to i64
  %20 = getelementptr inbounds nuw %"struct.llvm::EVT", ptr %18, i64 %19
  %.sroa.0.0.copyload.i.i = load i16, ptr %20, align 8
  %21 = tail call noundef i32 @_ZN4llvm5RTLIB12getFPLibCallENS_3EVTENS0_7LibcallES2_S2_S2_S2_(i16 %.sroa.0.0.copyload.i.i, ptr null, i32 noundef %2, i32 noundef %3, i32 noundef %4, i32 noundef %5, i32 noundef %6) #18
  tail call fastcc void @_ZN12_GLOBAL__N_120SelectionDAGLegalize15ExpandFPLibCallEPN4llvm6SDNodeENS1_5RTLIB7LibcallERNS1_15SmallVectorImplINS1_7SDValueEEE(ptr noundef nonnull align 8 dereferenceable(40) %0, ptr noundef nonnull %1, i32 noundef %21, ptr noundef nonnull align 8 dereferenceable(16) %7)
  ret void
}